target datalayout = "e-m:e-p270:32:32-p271:32:32-p272:64:64-i64:64-i128:128-f80:128-n8:16:32:64-S128"
target triple = "x86_64-pc-linux-gnu"

%"class.pxrInternal_v0_24__pxrReserved__::PcpPropertyIndex" = type { %"class.std::vector", %"class.std::unique_ptr" }
%"class.std::vector" = type { %"struct.std::_Vector_base" }
%"struct.std::_Vector_base" = type { %"struct.std::_Vector_base<pxrInternal_v0_24__pxrReserved__::Pcp_PropertyInfo, std::allocator<pxrInternal_v0_24__pxrReserved__::Pcp_PropertyInfo>>::_Vector_impl" }
%"struct.std::_Vector_base<pxrInternal_v0_24__pxrReserved__::Pcp_PropertyInfo, std::allocator<pxrInternal_v0_24__pxrReserved__::Pcp_PropertyInfo>>::_Vector_impl" = type { %"struct.std::_Vector_base<pxrInternal_v0_24__pxrReserved__::Pcp_PropertyInfo, std::allocator<pxrInternal_v0_24__pxrReserved__::Pcp_PropertyInfo>>::_Vector_impl_data" }
%"struct.std::_Vector_base<pxrInternal_v0_24__pxrReserved__::Pcp_PropertyInfo, std::allocator<pxrInternal_v0_24__pxrReserved__::Pcp_PropertyInfo>>::_Vector_impl_data" = type { ptr, ptr, ptr }
%"class.std::unique_ptr" = type { %"struct.std::__uniq_ptr_data" }
%"struct.std::__uniq_ptr_data" = type { %"class.std::__uniq_ptr_impl" }
%"class.std::__uniq_ptr_impl" = type { %"class.std::tuple" }
%"class.std::tuple" = type { %"struct.std::_Tuple_impl" }
%"struct.std::_Tuple_impl" = type { %"struct.std::_Head_base.1" }
%"struct.std::_Head_base.1" = type { ptr }
%"struct.pxrInternal_v0_24__pxrReserved__::Pcp_PropertyInfo" = type { %"class.pxrInternal_v0_24__pxrReserved__::SdfHandle", %"class.pxrInternal_v0_24__pxrReserved__::PcpNodeRef" }
%"class.pxrInternal_v0_24__pxrReserved__::SdfHandle" = type { %"class.pxrInternal_v0_24__pxrReserved__::SdfPropertySpec" }
%"class.pxrInternal_v0_24__pxrReserved__::SdfPropertySpec" = type { %"class.pxrInternal_v0_24__pxrReserved__::SdfSpec" }
%"class.pxrInternal_v0_24__pxrReserved__::SdfSpec" = type { %"class.pxrInternal_v0_24__pxrReserved__::TfDelegatedCountPtr" }
%"class.pxrInternal_v0_24__pxrReserved__::TfDelegatedCountPtr" = type { ptr }
%"class.pxrInternal_v0_24__pxrReserved__::PcpNodeRef" = type { ptr, i64 }

; Function Attrs: mustprogress nounwind uwtable
define linkonce_odr noundef nonnull align 8 dereferenceable(24) ptr @_ZNKSt6vectorIN32pxrInternal_v0_24__pxrReserved__16Pcp_PropertyInfoESaIS1_EEixEm(ptr noundef nonnull align 8 dereferenceable(24) %0, i64 noundef %1) #0 comdat align 2 {
  %3 = alloca ptr, align 8
  %4 = alloca i64, align 8
  store ptr %0, ptr %3, align 8
  store i64 %1, ptr %4, align 8
  %5 = load ptr, ptr %3, align 8
  %6 = getelementptr inbounds nuw %"struct.std::_Vector_base", ptr %5, i32 0, i32 0
  %7 = getelementptr inbounds nuw %"struct.std::_Vector_base<pxrInternal_v0_24__pxrReserved__::Pcp_PropertyInfo, std::allocator<pxrInternal_v0_24__pxrReserved__::Pcp_PropertyInfo>>::_Vector_impl_data", ptr %6, i32 0, i32 0
  %8 = load ptr, ptr %7, align 8
  %9 = load i64, ptr %4, align 8
  %10 = getelementptr inbounds %"struct.pxrInternal_v0_24__pxrReserved__::Pcp_PropertyInfo", ptr %8, i64 %9
  ret ptr %10
}

; Function Attrs: mustprogress nounwind uwtable
define linkonce_odr noundef i64 @_ZNKSt6vectorIN32pxrInternal_v0_24__pxrReserved__16Pcp_PropertyInfoESaIS1_EE4sizeEv(ptr noundef nonnull align 8 dereferenceable(24) %0) #0 comdat align 2 {
  %2 = alloca ptr, align 8
  store ptr %0, ptr %2, align 8
  %3 = load ptr, ptr %2, align 8
  %4 = getelementptr inbounds nuw %"struct.std::_Vector_base", ptr %3, i32 0, i32 0
  %5 = getelementptr inbounds nuw %"struct.std::_Vector_base<pxrInternal_v0_24__pxrReserved__::Pcp_PropertyInfo, std::allocator<pxrInternal_v0_24__pxrReserved__::Pcp_PropertyInfo>>::_Vector_impl_data", ptr %4, i32 0, i32 1
  %6 = load ptr, ptr %5, align 8
  %7 = getelementptr inbounds nuw %"struct.std::_Vector_base", ptr %3, i32 0, i32 0
  %8 = getelementptr inbounds nuw %"struct.std::_Vector_base<pxrInternal_v0_24__pxrReserved__::Pcp_PropertyInfo, std::allocator<pxrInternal_v0_24__pxrReserved__::Pcp_PropertyInfo>>::_Vector_impl_data", ptr %7, i32 0, i32 0
  %9 = load ptr, ptr %8, align 8
  %10 = ptrtoint ptr %6 to i64
  %11 = ptrtoint ptr %9 to i64
  %12 = sub i64 %10, %11
  %13 = sdiv exact i64 %12, 24
  ret i64 %13
}

; Function Attrs: mustprogress uwtable
define noundef i64 @_ZNK32pxrInternal_v0_24__pxrReserved__16PcpPropertyIndex16GetNumLocalSpecsEv(ptr noundef nonnull align 8 dereferenceable(32) %0) #1 align 2 {
  %2 = alloca ptr, align 8
  %3 = alloca i64, align 8
  %4 = alloca i64, align 8
  store ptr %0, ptr %2, align 8
  %5 = load ptr, ptr %2, align 8
  store i64 0, ptr %3, align 8
  store i64 0, ptr %4, align 8
  br label %6

6:                                                ; preds = %21, %1
  %7 = load i64, ptr %4, align 8
  %8 = getelementptr inbounds nuw %"class.pxrInternal_v0_24__pxrReserved__::PcpPropertyIndex", ptr %5, i32 0, i32 0
  %9 = call noundef i64 @_ZNKSt6vectorIN32pxrInternal_v0_24__pxrReserved__16Pcp_PropertyInfoESaIS1_EE4sizeEv(ptr noundef nonnull align 8 dereferenceable(24) %8) #11
  %10 = icmp ult i64 %7, %9
  br i1 %10, label %11, label %24

11:                                               ; preds = %6
  %12 = getelementptr inbounds nuw %"class.pxrInternal_v0_24__pxrReserved__::PcpPropertyIndex", ptr %5, i32 0, i32 0
  %13 = load i64, ptr %4, align 8
  %14 = call noundef nonnull align 8 dereferenceable(24) ptr @_ZNKSt6vectorIN32pxrInternal_v0_24__pxrReserved__16Pcp_PropertyInfoESaIS1_EEixEm(ptr noundef nonnull align 8 dereferenceable(24) %12, i64 noundef %13) #11
  %15 = getelementptr inbounds nuw %"struct.pxrInternal_v0_24__pxrReserved__::Pcp_PropertyInfo", ptr %14, i32 0, i32 1
  %16 = call noundef zeroext i1 @_ZNK32pxrInternal_v0_24__pxrReserved__10PcpNodeRef10IsRootNodeEv(ptr noundef nonnull align 8 dereferenceable(16) %15)
  br i1 %16, label %17, label %20

17:                                               ; preds = %11
  %18 = load i64, ptr %3, align 8
  %19 = add i64 %18, 1
  store i64 %19, ptr %3, align 8
  br label %20

20:                                               ; preds = %17, %11
  br label %21

21:                                               ; preds = %20
  %22 = load i64, ptr %4, align 8
  %23 = add i64 %22, 1
  store i64 %23, ptr %4, align 8
  br label %6, !llvm.loop !7

24:                                               ; preds = %6
  %25 = load i64, ptr %3, align 8
  ret i64 %25
}