; Function Attrs: mustprogress uwtable
define noundef i64 @_ZNK32pxrInternal_v0_24__pxrReserved__16PcpPropertyIndex16GetNumLocalSpecsEv(ptr nocapture noundef nonnull readonly align 8 dereferenceable(32) %0) local_unnamed_addr #2 align 2 {
  %2 = getelementptr inbounds nuw i8, ptr %0, i64 8
  %3 = load ptr, ptr %2, align 8
  %4 = load ptr, ptr %0, align 8
  %.not = icmp eq ptr %3, %4
  br i1 %.not, label %._crit_edge, label %.lr.ph

.lr.ph:                                           ; preds = %1, %.lr.ph
  %5 = phi ptr [ %11, %.lr.ph ], [ %4, %1 ]
  %.07 = phi i64 [ %9, %.lr.ph ], [ 0, %1 ]
  %.056 = phi i64 [ %spec.select, %.lr.ph ], [ 0, %1 ]
  %6 = getelementptr inbounds %"struct.pxrInternal_v0_24__pxrReserved__::Pcp_PropertyInfo", ptr %5, i64 %.07, i32 1
  %7 = tail call noundef zeroext i1 @_ZNK32pxrInternal_v0_24__pxrReserved__10PcpNodeRef10IsRootNodeEv(ptr noundef nonnull align 8 dereferenceable(16) %6)
  %8 = zext i1 %7 to i64
  %spec.select = add i64 %.056, %8
  %9 = add nuw i64 %.07, 1
  %10 = load ptr, ptr %2, align 8
  %11 = load ptr, ptr %0, align 8
  %12 = ptrtoint ptr %10 to i64
  %13 = ptrtoint ptr %11 to i64
  %14 = sub i64 %12, %13
  %15 = sdiv exact i64 %14, 24
  %16 = icmp ult i64 %9, %15
  br i1 %16, label %.lr.ph, label %._crit_edge, !llvm.loop !14

._crit_edge:                                      ; preds = %.lr.ph, %1
  %.05.lcssa = phi i64 [ 0, %1 ], [ %spec.select, %.lr.ph ]
  ret i64 %.05.lcssa
}